target datalayout = "e-m:e-p270:32:32-p271:32:32-p272:64:64-i64:64-i128:128-f80:128-n8:16:32:64-S128"
target triple = "x86_64-unknown-linux-gnu"

%"struct.google::SiteFlag" = type { ptr, ptr, i64, ptr }
%"class.proxygen::SessionHolder" = type { %"class.proxygen::HTTPSessionBase::InfoCallback", %"class.boost::intrusive::list_member_hook", %"class.boost::intrusive::list_member_hook", ptr, ptr, ptr, %"class.std::chrono::time_point", double, i32, [4 x i8], %"class.proxygen::Endpoint", ptr }
%"class.proxygen::HTTPSessionBase::InfoCallback" = type { ptr }
%"class.boost::intrusive::list_member_hook" = type { %"class.boost::intrusive::generic_hook" }
%"class.boost::intrusive::generic_hook" = type { %"struct.boost::intrusive::list_node" }
%"struct.boost::intrusive::list_node" = type { ptr, ptr }
%"class.std::chrono::time_point" = type { %"class.std::chrono::duration" }
%"class.std::chrono::duration" = type { i64 }
%"class.proxygen::Endpoint" = type <{ %"class.std::__cxx11::basic_string", i16, [6 x i8], i64, i8, [7 x i8] }>
%"class.std::__cxx11::basic_string" = type { %"struct.std::__cxx11::basic_string<char>::_Alloc_hider", i64, %union.anon }
%"struct.std::__cxx11::basic_string<char>::_Alloc_hider" = type { ptr }
%union.anon = type { i64, [8 x i8] }
%"class.google::LogMessage" = type { ptr, ptr, %"struct.google::LogMessageTime" }
%"struct.google::LogMessageTime" = type { %struct.tm, i64, i32, i64 }
%struct.tm = type { i32, i32, i32, i32, i32, i32, i32, i32, i32, i64, ptr }
%"class.google::LogMessageVoidify" = type { i8 }

@.str = private unnamed_addr constant [140 x i8] c"generated/home/dtcxzyw/WorkSpace/Projects/compilers/llvm-opt-benchmark/bench/proxygen/proxygen/proxygen/lib/http/connpool/SessionHolder.cpp\00", align 1
@_ZN3fLI7FLAGS_vE = external global i32, align 4
@_ZZN8proxygen13SessionHolder9onDestroyERKNS_15HTTPSessionBaseEE8vlocal__ = internal global %"struct.google::SiteFlag" zeroinitializer, align 8
@.str.13 = private unnamed_addr constant [36 x i8] c" connection to server was destroyed\00", align 1

; Function Attrs: mustprogress nounwind uwtable
define linkonce_odr void @_ZN6google17LogMessageVoidifyanERSo(ptr noundef nonnull align 1 dereferenceable(1) %this, ptr noundef nonnull align 8 dereferenceable(8) %0) #5 comdat align 2 {
entry:
  %this.addr = alloca ptr, align 8
  %.addr = alloca ptr, align 8
  store ptr %this, ptr %this.addr, align 8
  store ptr %0, ptr %.addr, align 8
  ret void
}

; Function Attrs: mustprogress uwtable
define linkonce_odr noundef nonnull align 8 dereferenceable(8) ptr @_ZN8proxygenlsERSoRKNS_13SessionHolderE(ptr noundef nonnull align 8 dereferenceable(8) %os, ptr noundef nonnull align 8 dereferenceable(152) %conn) #4 comdat {
entry:
  %os.addr = alloca ptr, align 8
  %conn.addr = alloca ptr, align 8
  store ptr %os, ptr %os.addr, align 8
  store ptr %conn, ptr %conn.addr, align 8
  %0 = load ptr, ptr %conn.addr, align 8
  %1 = load ptr, ptr %os.addr, align 8
  call void @_ZNK8proxygen13SessionHolder8describeERSo(ptr noundef nonnull align 8 dereferenceable(152) %0, ptr noundef nonnull align 8 dereferenceable(8) %1)
  %2 = load ptr, ptr %os.addr, align 8
  ret ptr %2
}

; Function Attrs: mustprogress nounwind uwtable
define linkonce_odr void @_ZN6google17LogMessageVoidifyC2Ev(ptr noundef nonnull align 1 dereferenceable(1) %this) unnamed_addr #5 comdat align 2 {
entry:
  %this.addr = alloca ptr, align 8
  store ptr %this, ptr %this.addr, align 8
  ret void
}

; Function Attrs: mustprogress uwtable
define void @_ZN8proxygen13SessionHolder9onDestroyERKNS_15HTTPSessionBaseE(ptr noundef nonnull align 8 dereferenceable(152) %this, ptr noundef nonnull align 8 dereferenceable(1582) %session) unnamed_addr #4 align 2 personality ptr @__gxx_personality_v0 {
entry:
  %this.addr = alloca ptr, align 8
  %session.addr = alloca ptr, align 8
  %verbose_level__ = alloca i32, align 4
  %tmp = alloca i8, align 1
  %ref.tmp = alloca %"class.google::LogMessageVoidify", align 1
  %ref.tmp16 = alloca %"class.google::LogMessage", align 8
  %cleanup.cond = alloca i1, align 1
  %exn.slot = alloca ptr, align 8
  %ehselector.slot = alloca i32, align 4
  store ptr %this, ptr %this.addr, align 8
  store ptr %session, ptr %session.addr, align 8
  %this1 = load ptr, ptr %this.addr, align 8
  %state_ = getelementptr inbounds %"class.proxygen::SessionHolder", ptr %this1, i32 0, i32 8
  %0 = load i32, ptr %state_, align 8
  %cmp = icmp ne i32 %0, 0
  br i1 %cmp, label %if.then, label %if.end

if.then:                                          ; preds = %entry
  call void @_ZN8proxygen13SessionHolder6unlinkEv(ptr noundef nonnull align 8 dereferenceable(152) %this1)
  br label %if.end

if.end:                                           ; preds = %if.then, %entry
  %stats_ = getelementptr inbounds %"class.proxygen::SessionHolder", ptr %this1, i32 0, i32 5
  %1 = load ptr, ptr %stats_, align 8
  %tobool = icmp ne ptr %1, null
  br i1 %tobool, label %if.then2, label %if.end4

if.then2:                                         ; preds = %if.end
  %stats_3 = getelementptr inbounds %"class.proxygen::SessionHolder", ptr %this1, i32 0, i32 5
  %2 = load ptr, ptr %stats_3, align 8
  %vtable = load ptr, ptr %2, align 8
  %vfn = getelementptr inbounds ptr, ptr %vtable, i64 3
  %3 = load ptr, ptr %vfn, align 8
  call void %3(ptr noundef nonnull align 8 dereferenceable(8) %2)
  br label %if.end4

if.end4:                                          ; preds = %if.then2, %if.end
  %originalSessionInfoCb_ = getelementptr inbounds %"class.proxygen::SessionHolder", ptr %this1, i32 0, i32 11
  %4 = load ptr, ptr %originalSessionInfoCb_, align 8
  %tobool5 = icmp ne ptr %4, null
  br i1 %tobool5, label %if.then6, label %if.end10

if.then6:                                         ; preds = %if.end4
  %originalSessionInfoCb_7 = getelementptr inbounds %"class.proxygen::SessionHolder", ptr %this1, i32 0, i32 11
  %5 = load ptr, ptr %originalSessionInfoCb_7, align 8
  %6 = load ptr, ptr %session.addr, align 8
  %vtable8 = load ptr, ptr %5, align 8
  %vfn9 = getelementptr inbounds ptr, ptr %vtable8, i64 15
  %7 = load ptr, ptr %vfn9, align 8
  call void %7(ptr noundef nonnull align 8 dereferenceable(8) %5, ptr noundef nonnull align 8 dereferenceable(1582) %6)
  br label %if.end10

if.end10:                                         ; preds = %if.then6, %if.end4
  store i32 4, ptr %verbose_level__, align 4
  %8 = load ptr, ptr @_ZZN8proxygen13SessionHolder9onDestroyERKNS_15HTTPSessionBaseEE8vlocal__, align 8
  %cmp11 = icmp eq ptr %8, null
  store i1 false, ptr %cleanup.cond, align 1
  br i1 %cmp11, label %cond.true, label %cond.false

cond.true:                                        ; preds = %if.end10
  %9 = load i32, ptr %verbose_level__, align 4
  %call = call noundef zeroext i1 @_ZN6google11InitVLOG3__EPNS_8SiteFlagEPiPKci(ptr noundef @_ZZN8proxygen13SessionHolder9onDestroyERKNS_15HTTPSessionBaseEE8vlocal__, ptr noundef @_ZN3fLI7FLAGS_vE, ptr noundef @.str, i32 noundef %9)
  br label %cond.end

cond.false:                                       ; preds = %if.end10
  %10 = load ptr, ptr @_ZZN8proxygen13SessionHolder9onDestroyERKNS_15HTTPSessionBaseEE8vlocal__, align 8
  %11 = load i32, ptr %10, align 4
  %12 = load i32, ptr %verbose_level__, align 4
  %cmp12 = icmp sge i32 %11, %12
  br label %cond.end

cond.end:                                         ; preds = %cond.false, %cond.true
  %cond = phi i1 [ %call, %cond.true ], [ %cmp12, %cond.false ]
  %frombool = zext i1 %cond to i8
  store i8 %frombool, ptr %tmp, align 1
  %13 = load i8, ptr %tmp, align 1
  %tobool13 = trunc i8 %13 to i1
  br i1 %tobool13, label %cond.false15, label %cond.true14

cond.true14:                                      ; preds = %cond.end
  br label %cond.end23

cond.false15:                                     ; preds = %cond.end
  call void @_ZN6google17LogMessageVoidifyC2Ev(ptr noundef nonnull align 1 dereferenceable(1) %ref.tmp)
  call void @_ZN6google10LogMessageC1EPKci(ptr noundef nonnull align 8 dereferenceable(96) %ref.tmp16, ptr noundef @.str, i32 noundef 233)
  store i1 true, ptr %cleanup.cond, align 1
  %call17 = invoke noundef nonnull align 8 dereferenceable(8) ptr @_ZN6google10LogMessage6streamEv(ptr noundef nonnull align 8 dereferenceable(96) %ref.tmp16)
          to label %invoke.cont unwind label %lpad

invoke.cont:                                      ; preds = %cond.false15
  %call19 = invoke noundef nonnull align 8 dereferenceable(8) ptr @_ZN8proxygenlsERSoRKNS_13SessionHolderE(ptr noundef nonnull align 8 dereferenceable(8) %call17, ptr noundef nonnull align 8 dereferenceable(152) %this1)
          to label %invoke.cont18 unwind label %lpad

invoke.cont18:                                    ; preds = %invoke.cont
  %call21 = invoke noundef nonnull align 8 dereferenceable(8) ptr @_ZStlsISt11char_traitsIcEERSt13basic_ostreamIcT_ES5_PKc(ptr noundef nonnull align 8 dereferenceable(8) %call19, ptr noundef @.str.13)
          to label %invoke.cont20 unwind label %lpad

invoke.cont20:                                    ; preds = %invoke.cont18
  invoke void @_ZN6google17LogMessageVoidifyanERSo(ptr noundef nonnull align 1 dereferenceable(1) %ref.tmp, ptr noundef nonnull align 8 dereferenceable(8) %call21)
          to label %invoke.cont22 unwind label %lpad

invoke.cont22:                                    ; preds = %invoke.cont20
  br label %cond.end23

cond.end23:                                       ; preds = %invoke.cont22, %cond.true14
  %cleanup.is_active = load i1, ptr %cleanup.cond, align 1
  br i1 %cleanup.is_active, label %cleanup.action, label %cleanup.done

cleanup.action:                                   ; preds = %cond.end23
  call void @_ZN6google10LogMessageD1Ev(ptr noundef nonnull align 8 dereferenceable(96) %ref.tmp16) #3
  br label %cleanup.done

cleanup.done:                                     ; preds = %cleanup.action, %cond.end23
  %isnull = icmp eq ptr %this1, null
  br i1 %isnull, label %delete.end, label %delete.notnull

delete.notnull:                                   ; preds = %cleanup.done
  %vtable27 = load ptr, ptr %this1, align 8
  %vfn28 = getelementptr inbounds ptr, ptr %vtable27, i64 1
  %14 = load ptr, ptr %vfn28, align 8
  call void %14(ptr noundef nonnull align 8 dereferenceable(152) %this1) #3
  br label %delete.end

delete.end:                                       ; preds = %delete.notnull, %cleanup.done
  ret void

lpad:                                             ; preds = %invoke.cont20, %invoke.cont18, %invoke.cont, %cond.false15
  %15 = landingpad { ptr, i32 }
          cleanup
  %16 = extractvalue { ptr, i32 } %15, 0
  store ptr %16, ptr %exn.slot, align 8
  %17 = extractvalue { ptr, i32 } %15, 1
  store i32 %17, ptr %ehselector.slot, align 4
  %cleanup.is_active24 = load i1, ptr %cleanup.cond, align 1
  br i1 %cleanup.is_active24, label %cleanup.action25, label %cleanup.done26

cleanup.action25:                                 ; preds = %lpad
  call void @_ZN6google10LogMessageD1Ev(ptr noundef nonnull align 8 dereferenceable(96) %ref.tmp16) #3
  br label %cleanup.done26

cleanup.done26:                                   ; preds = %cleanup.action25, %lpad
  br label %eh.resume

eh.resume:                                        ; preds = %cleanup.done26
  %exn = load ptr, ptr %exn.slot, align 8
  %sel = load i32, ptr %ehselector.slot, align 4
  %lpad.val = insertvalue { ptr, i32 } poison, ptr %exn, 0
  %lpad.val29 = insertvalue { ptr, i32 } %lpad.val, i32 %sel, 1
  resume { ptr, i32 } %lpad.val29
}