; Function Attrs: mustprogress uwtable
define void @_ZN8proxygen13SessionHolder9onDestroyERKNS_15HTTPSessionBaseE(ptr noundef nonnull align 8 dereferenceable(152) %this, ptr noundef nonnull align 8 dereferenceable(1582) %session) unnamed_addr #3 align 2 personality ptr @__gxx_personality_v0 {
entry:
  %ref.tmp16 = alloca %"class.google::LogMessage", align 8
  %state_ = getelementptr inbounds i8, ptr %this, i64 80
  %0 = load i32, ptr %state_, align 8
  %cmp.not = icmp eq i32 %0, 0
  br i1 %cmp.not, label %if.end, label %if.then

if.then:                                          ; preds = %entry
  tail call void @_ZN8proxygen13SessionHolder6unlinkEv(ptr noundef nonnull align 8 dereferenceable(152) %this)
  br label %if.end

if.end:                                           ; preds = %if.then, %entry
  %stats_ = getelementptr inbounds i8, ptr %this, i64 56
  %1 = load ptr, ptr %stats_, align 8
  %tobool.not = icmp eq ptr %1, null
  br i1 %tobool.not, label %if.end4, label %if.then2

if.then2:                                         ; preds = %if.end
  %vtable = load ptr, ptr %1, align 8
  %vfn = getelementptr inbounds i8, ptr %vtable, i64 24
  %2 = load ptr, ptr %vfn, align 8
  tail call void %2(ptr noundef nonnull align 8 dereferenceable(8) %1)
  br label %if.end4

if.end4:                                          ; preds = %if.then2, %if.end
  %originalSessionInfoCb_ = getelementptr inbounds i8, ptr %this, i64 144
  %3 = load ptr, ptr %originalSessionInfoCb_, align 8
  %tobool5.not = icmp eq ptr %3, null
  br i1 %tobool5.not, label %if.end10, label %if.then6

if.then6:                                         ; preds = %if.end4
  %vtable8 = load ptr, ptr %3, align 8
  %vfn9 = getelementptr inbounds i8, ptr %vtable8, i64 120
  %4 = load ptr, ptr %vfn9, align 8
  tail call void %4(ptr noundef nonnull align 8 dereferenceable(8) %3, ptr noundef nonnull align 8 dereferenceable(1582) %session)
  br label %if.end10

if.end10:                                         ; preds = %if.then6, %if.end4
  %5 = load ptr, ptr @_ZZN8proxygen13SessionHolder9onDestroyERKNS_15HTTPSessionBaseEE8vlocal__, align 8
  %cmp11 = icmp eq ptr %5, null
  br i1 %cmp11, label %cond.true, label %cond.end

cond.true:                                        ; preds = %if.end10
  %call = tail call noundef zeroext i1 @_ZN6google11InitVLOG3__EPNS_8SiteFlagEPiPKci(ptr noundef nonnull @_ZZN8proxygen13SessionHolder9onDestroyERKNS_15HTTPSessionBaseEE8vlocal__, ptr noundef nonnull @_ZN3fLI7FLAGS_vE, ptr noundef nonnull @.str, i32 noundef 4)
  br i1 %call, label %cond.false15, label %delete.notnull

cond.end:                                         ; preds = %if.end10
  %6 = load i32, ptr %5, align 4
  %cmp12 = icmp sgt i32 %6, 3
  br i1 %cmp12, label %cond.false15, label %delete.notnull

cond.false15:                                     ; preds = %cond.true, %cond.end
  call void @_ZN6google10LogMessageC1EPKci(ptr noundef nonnull align 8 dereferenceable(96) %ref.tmp16, ptr noundef nonnull @.str, i32 noundef 233)
  %call17 = invoke noundef nonnull align 8 dereferenceable(8) ptr @_ZN6google10LogMessage6streamEv(ptr noundef nonnull align 8 dereferenceable(96) %ref.tmp16)
          to label %invoke.cont unwind label %lpad

invoke.cont:                                      ; preds = %cond.false15
  invoke void @_ZNK8proxygen13SessionHolder8describeERSo(ptr noundef nonnull align 8 dereferenceable(152) %this, ptr noundef nonnull align 8 dereferenceable(8) %call17)
          to label %invoke.cont18 unwind label %lpad

invoke.cont18:                                    ; preds = %invoke.cont
  %call21 = invoke noundef nonnull align 8 dereferenceable(8) ptr @_ZStlsISt11char_traitsIcEERSt13basic_ostreamIcT_ES5_PKc(ptr noundef nonnull align 8 dereferenceable(8) %call17, ptr noundef nonnull @.str.13)
          to label %cleanup.action unwind label %lpad

cleanup.action:                                   ; preds = %invoke.cont18
  call void @_ZN6google10LogMessageD1Ev(ptr noundef nonnull align 8 dereferenceable(96) %ref.tmp16) #21
  br label %delete.notnull

delete.notnull:                                   ; preds = %cond.true, %cleanup.action, %cond.end
  %vtable27 = load ptr, ptr %this, align 8
  %vfn28 = getelementptr inbounds i8, ptr %vtable27, i64 8
  %7 = load ptr, ptr %vfn28, align 8
  call void %7(ptr noundef nonnull align 8 dereferenceable(152) %this) #21
  ret void

lpad:                                             ; preds = %invoke.cont, %invoke.cont18, %cond.false15
  %8 = landingpad { ptr, i32 }
          cleanup
  call void @_ZN6google10LogMessageD1Ev(ptr noundef nonnull align 8 dereferenceable(96) %ref.tmp16) #21
  resume { ptr, i32 } %8
}